target datalayout = "e-m:e-p270:32:32-p271:32:32-p272:64:64-i64:64-i128:128-f80:128-n8:16:32:64-S128"
target triple = "x86_64-pc-linux-gnu"

@.str.17 = private unnamed_addr constant [32 x i8] c"That operation is not supported\00", align 1

; Function Attrs: nounwind uwtable
define internal zeroext i1 @ChoosePresentMode(ptr noundef %0, ptr noundef %1, i32 noundef %2, ptr noundef %3) #0 {
  %5 = alloca i1, align 1
  %6 = alloca ptr, align 8
  %7 = alloca ptr, align 8
  %8 = alloca i32, align 4
  %9 = alloca ptr, align 8
  %10 = alloca i32, align 4
  %11 = alloca i32, align 4
  store ptr %0, ptr %6, align 8
  store ptr %1, ptr %7, align 8
  store i32 %2, ptr %8, align 4
  store ptr %3, ptr %9, align 8
  call void @llvm.lifetime.start.p0(i64 4, ptr %10) #10
  %12 = load i32, ptr %8, align 4
  switch i32 %12, label %27 [
    i32 0, label %13
    i32 1, label %26
  ]

13:                                               ; preds = %4
  store i32 2, ptr %10, align 4
  %14 = load ptr, ptr %6, align 8
  %15 = load ptr, ptr %7, align 8
  %16 = load i32, ptr %10, align 4
  %17 = call zeroext i1 @SDL_WindowSupportsGPUPresentMode_REAL(ptr noundef %14, ptr noundef %15, i32 noundef %16)
  br i1 %17, label %25, label %18

18:                                               ; preds = %13
  store i32 1, ptr %10, align 4
  %19 = load ptr, ptr %6, align 8
  %20 = load ptr, ptr %7, align 8
  %21 = load i32, ptr %10, align 4
  %22 = call zeroext i1 @SDL_WindowSupportsGPUPresentMode_REAL(ptr noundef %19, ptr noundef %20, i32 noundef %21)
  br i1 %22, label %24, label %23

23:                                               ; preds = %18
  store i32 0, ptr %10, align 4
  br label %24

24:                                               ; preds = %23, %18
  br label %25

25:                                               ; preds = %24, %13
  br label %29

26:                                               ; preds = %4
  store i32 0, ptr %10, align 4
  br label %29

27:                                               ; preds = %4
  %28 = call zeroext i1 (ptr, ...) @SDL_SetError_REAL(ptr noundef @.str.17)
  store i1 %28, ptr %5, align 1
  store i32 1, ptr %11, align 4
  br label %32

29:                                               ; preds = %26, %25
  %30 = load i32, ptr %10, align 4
  %31 = load ptr, ptr %9, align 8
  store i32 %30, ptr %31, align 4
  store i1 true, ptr %5, align 1
  store i32 1, ptr %11, align 4
  br label %32

32:                                               ; preds = %29, %27
  call void @llvm.lifetime.end.p0(i64 4, ptr %10) #10
  %33 = load i1, ptr %5, align 1
  ret i1 %33
}