; Function Attrs: nounwind uwtable
define internal fastcc void @ChoosePresentMode(ptr noundef %0, ptr noundef %1, i32 noundef %2, ptr noundef nonnull writeonly captures(none) %3) unnamed_addr #0 {
  switch i32 %2, label %9 [
    i32 0, label %5
    i32 1, label %11
  ]

5:                                                ; preds = %4
  %6 = tail call zeroext i1 @SDL_WindowSupportsGPUPresentMode_REAL(ptr noundef %0, ptr noundef %1, i32 noundef 2) #11
  br i1 %6, label %11, label %7

7:                                                ; preds = %5
  %8 = tail call zeroext i1 @SDL_WindowSupportsGPUPresentMode_REAL(ptr noundef %0, ptr noundef %1, i32 noundef 1) #11
  %spec.select = zext i1 %8 to i32
  br label %11

9:                                                ; preds = %4
  %10 = tail call zeroext i1 (ptr, ...) @SDL_SetError_REAL(ptr noundef nonnull @.str.17) #11
  br label %12

11:                                               ; preds = %7, %4, %5
  %.0 = phi i32 [ 2, %5 ], [ %spec.select, %7 ], [ 0, %4 ]
  store i32 %.0, ptr %3, align 4
  br label %12

12:                                               ; preds = %11, %9
  ret void
}